target datalayout = "e-m:e-p270:32:32-p271:32:32-p272:64:64-i64:64-i128:128-f80:128-n8:16:32:64-S128"
target triple = "x86_64-pc-linux-gnu"

%"class.pbrt::Point3" = type { %"class.pbrt::Tuple3.9" }
%"class.pbrt::Tuple3.9" = type { float, float, float }
%"class.pbrt::Vector3" = type { %"class.pbrt::Tuple3" }
%"class.pbrt::Tuple3" = type { float, float, float }
%"class.pbrt::Medium" = type { %"class.pbrt::TaggedPointer.14" }
%"class.pbrt::TaggedPointer.14" = type { i64 }
%"class.pbrt::Ray" = type { %"class.pbrt::Point3", %"class.pbrt::Vector3", float, %"class.pbrt::Medium" }

; Function Attrs: mustprogress nounwind uwtable
define linkonce_odr dso_local void @_ZN4pbrt6Tuple3INS_6Point3EfEC2Efff(ptr noundef nonnull align 4 dereferenceable(12) %0, float noundef %1, float noundef %2, float noundef %3) unnamed_addr #6 comdat align 2 {
  %5 = alloca ptr, align 8
  %6 = alloca float, align 4
  %7 = alloca float, align 4
  %8 = alloca float, align 4
  store ptr %0, ptr %5, align 8, !tbaa !439
  store float %1, ptr %6, align 4, !tbaa !9
  store float %2, ptr %7, align 4, !tbaa !9
  store float %3, ptr %8, align 4, !tbaa !9
  %9 = load ptr, ptr %5, align 8
  %10 = getelementptr inbounds nuw %"class.pbrt::Tuple3.9", ptr %9, i32 0, i32 0
  %11 = load float, ptr %6, align 4, !tbaa !9
  store float %11, ptr %10, align 4, !tbaa !42
  %12 = getelementptr inbounds nuw %"class.pbrt::Tuple3.9", ptr %9, i32 0, i32 1
  %13 = load float, ptr %7, align 4, !tbaa !9
  store float %13, ptr %12, align 4, !tbaa !44
  %14 = getelementptr inbounds nuw %"class.pbrt::Tuple3.9", ptr %9, i32 0, i32 2
  %15 = load float, ptr %8, align 4, !tbaa !9
  store float %15, ptr %14, align 4, !tbaa !45
  br label %16

16:                                               ; preds = %4
  br label %17

17:                                               ; preds = %16
  ret void
}

; Function Attrs: mustprogress nounwind uwtable
define linkonce_odr dso_local void @_ZN4pbrt6Tuple3INS_7Vector3EfEC2Efff(ptr noundef nonnull align 4 dereferenceable(12) %0, float noundef %1, float noundef %2, float noundef %3) unnamed_addr #6 comdat align 2 {
  %5 = alloca ptr, align 8
  %6 = alloca float, align 4
  %7 = alloca float, align 4
  %8 = alloca float, align 4
  store ptr %0, ptr %5, align 8, !tbaa !132
  store float %1, ptr %6, align 4, !tbaa !9
  store float %2, ptr %7, align 4, !tbaa !9
  store float %3, ptr %8, align 4, !tbaa !9
  %9 = load ptr, ptr %5, align 8
  %10 = getelementptr inbounds nuw %"class.pbrt::Tuple3", ptr %9, i32 0, i32 0
  %11 = load float, ptr %6, align 4, !tbaa !9
  store float %11, ptr %10, align 4, !tbaa !129
  %12 = getelementptr inbounds nuw %"class.pbrt::Tuple3", ptr %9, i32 0, i32 1
  %13 = load float, ptr %7, align 4, !tbaa !9
  store float %13, ptr %12, align 4, !tbaa !130
  %14 = getelementptr inbounds nuw %"class.pbrt::Tuple3", ptr %9, i32 0, i32 2
  %15 = load float, ptr %8, align 4, !tbaa !9
  store float %15, ptr %14, align 4, !tbaa !131
  br label %16

16:                                               ; preds = %4
  br label %17

17:                                               ; preds = %16
  ret void
}

; Function Attrs: mustprogress nounwind uwtable
define linkonce_odr dso_local void @_ZN4pbrt6Point3IfEC2Efff(ptr noundef nonnull align 4 dereferenceable(12) %0, float noundef %1, float noundef %2, float noundef %3) unnamed_addr #6 comdat align 2 {
  %5 = alloca ptr, align 8
  %6 = alloca float, align 4
  %7 = alloca float, align 4
  %8 = alloca float, align 4
  store ptr %0, ptr %5, align 8, !tbaa !38
  store float %1, ptr %6, align 4, !tbaa !9
  store float %2, ptr %7, align 4, !tbaa !9
  store float %3, ptr %8, align 4, !tbaa !9
  %9 = load ptr, ptr %5, align 8
  %10 = load float, ptr %6, align 4, !tbaa !9
  %11 = load float, ptr %7, align 4, !tbaa !9
  %12 = load float, ptr %8, align 4, !tbaa !9
  call void @_ZN4pbrt6Tuple3INS_6Point3EfEC2Efff(ptr noundef nonnull align 4 dereferenceable(12) %9, float noundef %10, float noundef %11, float noundef %12)
  ret void
}

; Function Attrs: mustprogress nounwind uwtable
define linkonce_odr dso_local void @_ZN4pbrt7Vector3IfEC2Efff(ptr noundef nonnull align 4 dereferenceable(12) %0, float noundef %1, float noundef %2, float noundef %3) unnamed_addr #6 comdat align 2 {
  %5 = alloca ptr, align 8
  %6 = alloca float, align 4
  %7 = alloca float, align 4
  %8 = alloca float, align 4
  store ptr %0, ptr %5, align 8, !tbaa !40
  store float %1, ptr %6, align 4, !tbaa !9
  store float %2, ptr %7, align 4, !tbaa !9
  store float %3, ptr %8, align 4, !tbaa !9
  %9 = load ptr, ptr %5, align 8
  %10 = load float, ptr %6, align 4, !tbaa !9
  %11 = load float, ptr %7, align 4, !tbaa !9
  %12 = load float, ptr %8, align 4, !tbaa !9
  call void @_ZN4pbrt6Tuple3INS_7Vector3EfEC2Efff(ptr noundef nonnull align 4 dereferenceable(12) %9, float noundef %10, float noundef %11, float noundef %12)
  ret void
}

; Function Attrs: mustprogress uwtable
define linkonce_odr dso_local { <2 x float>, float } @_ZNK4pbrt6Point3IfEplIfEENS0_IDTpltlfEtlT_EEEENS_7Vector3IS3_EE(ptr noundef nonnull align 4 dereferenceable(12) %0, <2 x float> %1, float %2) #3 comdat align 2 {
  %4 = alloca %"class.pbrt::Point3", align 4
  %5 = alloca %"class.pbrt::Vector3", align 4
  %6 = alloca { <2 x float>, float }, align 4
  %7 = alloca ptr, align 8
  %8 = alloca { <2 x float>, float }, align 8
  %9 = getelementptr inbounds nuw { <2 x float>, float }, ptr %6, i32 0, i32 0
  store <2 x float> %1, ptr %9, align 4
  %10 = getelementptr inbounds nuw { <2 x float>, float }, ptr %6, i32 0, i32 1
  store float %2, ptr %10, align 4
  call void @llvm.memcpy.p0.p0.i64(ptr align 4 %5, ptr align 4 %6, i64 12, i1 false)
  store ptr %0, ptr %7, align 8, !tbaa !38
  %11 = load ptr, ptr %7, align 8
  br label %12

12:                                               ; preds = %3
  br label %13

13:                                               ; preds = %12
  %14 = getelementptr inbounds nuw %"class.pbrt::Tuple3.9", ptr %11, i32 0, i32 0
  %15 = load float, ptr %14, align 4, !tbaa !42
  %16 = getelementptr inbounds nuw %"class.pbrt::Tuple3", ptr %5, i32 0, i32 0
  %17 = load float, ptr %16, align 4, !tbaa !129
  %18 = fadd float %15, %17
  %19 = getelementptr inbounds nuw %"class.pbrt::Tuple3.9", ptr %11, i32 0, i32 1
  %20 = load float, ptr %19, align 4, !tbaa !44
  %21 = getelementptr inbounds nuw %"class.pbrt::Tuple3", ptr %5, i32 0, i32 1
  %22 = load float, ptr %21, align 4, !tbaa !130
  %23 = fadd float %20, %22
  %24 = getelementptr inbounds nuw %"class.pbrt::Tuple3.9", ptr %11, i32 0, i32 2
  %25 = load float, ptr %24, align 4, !tbaa !45
  %26 = getelementptr inbounds nuw %"class.pbrt::Tuple3", ptr %5, i32 0, i32 2
  %27 = load float, ptr %26, align 4, !tbaa !131
  %28 = fadd float %25, %27
  call void @_ZN4pbrt6Point3IfEC2Efff(ptr noundef nonnull align 4 dereferenceable(12) %4, float noundef %18, float noundef %23, float noundef %28)
  %29 = getelementptr inbounds nuw %"class.pbrt::Point3", ptr %4, i32 0, i32 0
  call void @llvm.memcpy.p0.p0.i64(ptr align 8 %8, ptr align 4 %29, i64 12, i1 false)
  %30 = load { <2 x float>, float }, ptr %8, align 8
  ret { <2 x float>, float } %30
}

; Function Attrs: mustprogress uwtable
define linkonce_odr dso_local { <2 x float>, float } @_ZNK4pbrt6Tuple3INS_7Vector3EfEmlIfEENS1_IDTmltlfEtlT_EEEES4_(ptr noundef nonnull align 4 dereferenceable(12) %0, float noundef %1) #1 comdat align 2 {
  %3 = alloca %"class.pbrt::Vector3", align 4
  %4 = alloca ptr, align 8
  %5 = alloca float, align 4
  %6 = alloca { <2 x float>, float }, align 8
  store ptr %0, ptr %4, align 8, !tbaa !132
  store float %1, ptr %5, align 4, !tbaa !9
  %7 = load ptr, ptr %4, align 8
  %8 = load float, ptr %5, align 4, !tbaa !9
  %9 = getelementptr inbounds nuw %"class.pbrt::Tuple3", ptr %7, i32 0, i32 0
  %10 = load float, ptr %9, align 4, !tbaa !129
  %11 = fmul float %8, %10
  %12 = load float, ptr %5, align 4, !tbaa !9
  %13 = getelementptr inbounds nuw %"class.pbrt::Tuple3", ptr %7, i32 0, i32 1
  %14 = load float, ptr %13, align 4, !tbaa !130
  %15 = fmul float %12, %14
  %16 = load float, ptr %5, align 4, !tbaa !9
  %17 = getelementptr inbounds nuw %"class.pbrt::Tuple3", ptr %7, i32 0, i32 2
  %18 = load float, ptr %17, align 4, !tbaa !131
  %19 = fmul float %16, %18
  call void @_ZN4pbrt7Vector3IfEC2Efff(ptr noundef nonnull align 4 dereferenceable(12) %3, float noundef %11, float noundef %15, float noundef %19)
  %20 = getelementptr inbounds nuw %"class.pbrt::Vector3", ptr %3, i32 0, i32 0
  call void @llvm.memcpy.p0.p0.i64(ptr align 8 %6, ptr align 4 %20, i64 12, i1 false)
  %21 = load { <2 x float>, float }, ptr %6, align 8
  ret { <2 x float>, float } %21
}

; Function Attrs: mustprogress uwtable
define linkonce_odr dso_local { <2 x float>, float } @_ZNK4pbrt3RayclEf(ptr noundef nonnull align 8 dereferenceable(40) %0, float noundef %1) #3 comdat align 2 {
  %3 = alloca %"class.pbrt::Point3", align 4
  %4 = alloca ptr, align 8
  %5 = alloca float, align 4
  %6 = alloca %"class.pbrt::Vector3", align 4
  %7 = alloca { <2 x float>, float }, align 8
  %8 = alloca { <2 x float>, float }, align 4
  %9 = alloca { <2 x float>, float }, align 8
  %10 = alloca { <2 x float>, float }, align 8
  store ptr %0, ptr %4, align 8, !tbaa !58
  store float %1, ptr %5, align 4, !tbaa !9
  %11 = load ptr, ptr %4, align 8
  %12 = getelementptr inbounds nuw %"class.pbrt::Ray", ptr %11, i32 0, i32 0
  %13 = getelementptr inbounds nuw %"class.pbrt::Ray", ptr %11, i32 0, i32 1
  %14 = load float, ptr %5, align 4, !tbaa !9
  %15 = call { <2 x float>, float } @_ZNK4pbrt6Tuple3INS_7Vector3EfEmlIfEENS1_IDTmltlfEtlT_EEEES4_(ptr noundef nonnull align 4 dereferenceable(12) %13, float noundef %14)
  %16 = getelementptr inbounds nuw %"class.pbrt::Vector3", ptr %6, i32 0, i32 0
  store { <2 x float>, float } %15, ptr %7, align 8
  call void @llvm.memcpy.p0.p0.i64(ptr align 4 %16, ptr align 8 %7, i64 12, i1 false)
  call void @llvm.memcpy.p0.p0.i64(ptr align 4 %8, ptr align 4 %6, i64 12, i1 false)
  %17 = getelementptr inbounds nuw { <2 x float>, float }, ptr %8, i32 0, i32 0
  %18 = load <2 x float>, ptr %17, align 4
  %19 = getelementptr inbounds nuw { <2 x float>, float }, ptr %8, i32 0, i32 1
  %20 = load float, ptr %19, align 4
  %21 = call { <2 x float>, float } @_ZNK4pbrt6Point3IfEplIfEENS0_IDTpltlfEtlT_EEEENS_7Vector3IS3_EE(ptr noundef nonnull align 4 dereferenceable(12) %12, <2 x float> %18, float %20)
  %22 = getelementptr inbounds nuw %"class.pbrt::Point3", ptr %3, i32 0, i32 0
  store { <2 x float>, float } %21, ptr %9, align 8
  call void @llvm.memcpy.p0.p0.i64(ptr align 4 %22, ptr align 8 %9, i64 12, i1 false)
  %23 = getelementptr inbounds nuw %"class.pbrt::Point3", ptr %3, i32 0, i32 0
  call void @llvm.memcpy.p0.p0.i64(ptr align 8 %10, ptr align 4 %23, i64 12, i1 false)
  %24 = load { <2 x float>, float }, ptr %10, align 8
  ret { <2 x float>, float } %24
}

; Function Attrs: mustprogress uwtable
define dso_local void @_ZN4pbrt15RealisticCamera21ComputeCardinalPointsENS_3RayES1_PfS2_(ptr noundef %0, ptr noundef %1, ptr noundef %2, ptr noundef %3) #3 align 2 {
  %5 = alloca ptr, align 8
  %6 = alloca ptr, align 8
  %7 = alloca ptr, align 8
  %8 = alloca ptr, align 8
  %9 = alloca float, align 4
  %10 = alloca %"class.pbrt::Point3", align 4
  %11 = alloca { <2 x float>, float }, align 8
  %12 = alloca float, align 4
  %13 = alloca %"class.pbrt::Point3", align 4
  %14 = alloca { <2 x float>, float }, align 8
  store ptr %0, ptr %5, align 8, !tbaa !58
  store ptr %1, ptr %6, align 8, !tbaa !58
  store ptr %2, ptr %7, align 8, !tbaa !65
  store ptr %3, ptr %8, align 8, !tbaa !65
  call void @llvm.lifetime.start.p0(i64 4, ptr %9) #15
  %15 = getelementptr inbounds nuw %"class.pbrt::Ray", ptr %1, i32 0, i32 0
  %16 = getelementptr inbounds nuw %"class.pbrt::Tuple3.9", ptr %15, i32 0, i32 0
  %17 = load float, ptr %16, align 8, !tbaa !42
  %18 = fneg float %17
  %19 = getelementptr inbounds nuw %"class.pbrt::Ray", ptr %1, i32 0, i32 1
  %20 = getelementptr inbounds nuw %"class.pbrt::Tuple3", ptr %19, i32 0, i32 0
  %21 = load float, ptr %20, align 4, !tbaa !129
  %22 = fdiv float %18, %21
  store float %22, ptr %9, align 4, !tbaa !9
  call void @llvm.lifetime.start.p0(i64 12, ptr %10) #15
  %23 = load float, ptr %9, align 4, !tbaa !9
  %24 = call { <2 x float>, float } @_ZNK4pbrt3RayclEf(ptr noundef nonnull align 8 dereferenceable(40) %1, float noundef %23)
  %25 = getelementptr inbounds nuw %"class.pbrt::Point3", ptr %10, i32 0, i32 0
  store { <2 x float>, float } %24, ptr %11, align 8
  call void @llvm.memcpy.p0.p0.i64(ptr align 4 %25, ptr align 8 %11, i64 12, i1 false)
  %26 = getelementptr inbounds nuw %"class.pbrt::Tuple3.9", ptr %10, i32 0, i32 2
  %27 = load float, ptr %26, align 4, !tbaa !45
  %28 = fneg float %27
  %29 = load ptr, ptr %8, align 8, !tbaa !65
  store float %28, ptr %29, align 4, !tbaa !9
  call void @llvm.lifetime.end.p0(i64 12, ptr %10) #15
  call void @llvm.lifetime.start.p0(i64 4, ptr %12) #15
  %30 = getelementptr inbounds nuw %"class.pbrt::Ray", ptr %0, i32 0, i32 0
  %31 = getelementptr inbounds nuw %"class.pbrt::Tuple3.9", ptr %30, i32 0, i32 0
  %32 = load float, ptr %31, align 8, !tbaa !42
  %33 = getelementptr inbounds nuw %"class.pbrt::Ray", ptr %1, i32 0, i32 0
  %34 = getelementptr inbounds nuw %"class.pbrt::Tuple3.9", ptr %33, i32 0, i32 0
  %35 = load float, ptr %34, align 8, !tbaa !42
  %36 = fsub float %32, %35
  %37 = getelementptr inbounds nuw %"class.pbrt::Ray", ptr %1, i32 0, i32 1
  %38 = getelementptr inbounds nuw %"class.pbrt::Tuple3", ptr %37, i32 0, i32 0
  %39 = load float, ptr %38, align 4, !tbaa !129
  %40 = fdiv float %36, %39
  store float %40, ptr %12, align 4, !tbaa !9
  call void @llvm.lifetime.start.p0(i64 12, ptr %13) #15
  %41 = load float, ptr %12, align 4, !tbaa !9
  %42 = call { <2 x float>, float } @_ZNK4pbrt3RayclEf(ptr noundef nonnull align 8 dereferenceable(40) %1, float noundef %41)
  %43 = getelementptr inbounds nuw %"class.pbrt::Point3", ptr %13, i32 0, i32 0
  store { <2 x float>, float } %42, ptr %14, align 8
  call void @llvm.memcpy.p0.p0.i64(ptr align 4 %43, ptr align 8 %14, i64 12, i1 false)
  %44 = getelementptr inbounds nuw %"class.pbrt::Tuple3.9", ptr %13, i32 0, i32 2
  %45 = load float, ptr %44, align 4, !tbaa !45
  %46 = fneg float %45
  %47 = load ptr, ptr %7, align 8, !tbaa !65
  store float %46, ptr %47, align 4, !tbaa !9
  call void @llvm.lifetime.end.p0(i64 12, ptr %13) #15
  call void @llvm.lifetime.end.p0(i64 4, ptr %12) #15
  call void @llvm.lifetime.end.p0(i64 4, ptr %9) #15
  ret void
}