; Function Attrs: mustprogress nofree norecurse nosync nounwind willreturn memory(argmem: readwrite) uwtable
define dso_local void @_ZN4pbrt15RealisticCamera21ComputeCardinalPointsENS_3RayES1_PfS2_(ptr noundef readonly captures(none) %0, ptr noundef readonly captures(none) %1, ptr noundef writeonly captures(none) initializes((0, 4)) %2, ptr noundef writeonly captures(none) initializes((0, 4)) %3) local_unnamed_addr #11 align 2 {
  %5 = load float, ptr %1, align 8, !tbaa !146
  %6 = fneg float %5
  %7 = getelementptr inbounds nuw i8, ptr %1, i64 12
  %8 = load float, ptr %7, align 4, !tbaa !42
  %9 = fdiv float %6, %8
  %10 = getelementptr inbounds nuw i8, ptr %1, i64 20
  %11 = load float, ptr %10, align 4, !tbaa !45
  %12 = fmul float %9, %11
  %13 = getelementptr inbounds nuw i8, ptr %1, i64 8
  %14 = load float, ptr %13, align 4, !tbaa !149
  %15 = fadd float %12, %14
  %16 = fneg float %15
  store float %16, ptr %3, align 4, !tbaa !6
  %17 = load float, ptr %0, align 8, !tbaa !146
  %18 = load float, ptr %1, align 8, !tbaa !146
  %19 = fsub float %17, %18
  %20 = load float, ptr %7, align 4, !tbaa !42
  %21 = fdiv float %19, %20
  %22 = load float, ptr %10, align 4, !tbaa !45
  %23 = fmul float %21, %22
  %24 = load float, ptr %13, align 4, !tbaa !149
  %25 = fadd float %23, %24
  %26 = fneg float %25
  store float %26, ptr %2, align 4, !tbaa !6
  ret void
}